#include <math.h>
#include <stdio.h>
#include <stdlib.h>
#include <string.h>
#include <iostream>
using namespace std;

int sum = 0;
void fenjie(int t,int n)
{
	int i = 0;
	if(n == 1)
	    sum++;
    for(i = t; i <= n; i++)
	{
		if(n % i == 0)
		{
			fenjie(i, n / i);
		}
	}
}
int main()
{
	int n = 0, k = 0;
	cin >> n;
	while(n > 0)
	{
		 cin >> k; 
         sum = 0;
		 fenjie(2,k);
		 n--;
		 cout << sum <<endl;
	}
	return 0;
}